target datalayout = "e-m:e-p270:32:32-p271:32:32-p272:64:64-i64:64-i128:128-f80:128-n8:16:32:64-S128"
target triple = "x86_64-pc-linux-gnu"

%"struct.std::_Vector_base.21" = type { %"struct.std::_Vector_base<pxrInternal_v0_24__pxrReserved__::(anonymous namespace)::_ClipSet, std::allocator<pxrInternal_v0_24__pxrReserved__::(anonymous namespace)::_ClipSet>>::_Vector_impl" }
%"struct.std::_Vector_base<pxrInternal_v0_24__pxrReserved__::(anonymous namespace)::_ClipSet, std::allocator<pxrInternal_v0_24__pxrReserved__::(anonymous namespace)::_ClipSet>>::_Vector_impl" = type { %"struct.std::_Vector_base<pxrInternal_v0_24__pxrReserved__::(anonymous namespace)::_ClipSet, std::allocator<pxrInternal_v0_24__pxrReserved__::(anonymous namespace)::_ClipSet>>::_Vector_impl_data" }
%"struct.std::_Vector_base<pxrInternal_v0_24__pxrReserved__::(anonymous namespace)::_ClipSet, std::allocator<pxrInternal_v0_24__pxrReserved__::(anonymous namespace)::_ClipSet>>::_Vector_impl_data" = type { ptr, ptr, ptr }
%"class.std::__cxx11::basic_string" = type { %"struct.std::__cxx11::basic_string<char>::_Alloc_hider", i64, %union.anon }
%"struct.std::__cxx11::basic_string<char>::_Alloc_hider" = type { ptr }
%union.anon = type { i64, [8 x i8] }
%"class.pxrInternal_v0_24__pxrReserved__::TfWeakPtr" = type { ptr, %"class.pxrInternal_v0_24__pxrReserved__::TfRefPtr.8" }
%"class.pxrInternal_v0_24__pxrReserved__::TfRefPtr.8" = type { ptr }
%"class.pxrInternal_v0_24__pxrReserved__::SdfPath" = type { %"struct.pxrInternal_v0_24__pxrReserved__::Sdf_PathNodeHandleImpl", %"struct.pxrInternal_v0_24__pxrReserved__::Sdf_PathNodeHandleImpl.9" }
%"struct.pxrInternal_v0_24__pxrReserved__::Sdf_PathNodeHandleImpl" = type { %"struct.pxrInternal_v0_24__pxrReserved__::Sdf_Pool<pxrInternal_v0_24__pxrReserved__::Sdf_PathPrimTag, 24, 8>::Handle" }
%"struct.pxrInternal_v0_24__pxrReserved__::Sdf_Pool<pxrInternal_v0_24__pxrReserved__::Sdf_PathPrimTag, 24, 8>::Handle" = type { i32 }
%"struct.pxrInternal_v0_24__pxrReserved__::Sdf_PathNodeHandleImpl.9" = type { %"struct.pxrInternal_v0_24__pxrReserved__::Sdf_Pool<pxrInternal_v0_24__pxrReserved__::Sdf_PathPropTag, 24, 8>::Handle" }
%"struct.pxrInternal_v0_24__pxrReserved__::Sdf_Pool<pxrInternal_v0_24__pxrReserved__::Sdf_PathPropTag, 24, 8>::Handle" = type { i32 }
%"struct.pxrInternal_v0_24__pxrReserved__::(anonymous namespace)::_ClipSet" = type { %"struct.pxrInternal_v0_24__pxrReserved__::(anonymous namespace)::_ClipSet::_AnchorInfo", %"class.pxrInternal_v0_24__pxrReserved__::VtDictionary", %"class.std::__cxx11::basic_string" }
%"struct.pxrInternal_v0_24__pxrReserved__::(anonymous namespace)::_ClipSet::_AnchorInfo" = type { %"class.pxrInternal_v0_24__pxrReserved__::TfWeakPtr", %"class.pxrInternal_v0_24__pxrReserved__::SdfPath", i64, i64, %"class.pxrInternal_v0_24__pxrReserved__::SdfLayerOffset" }
%"class.pxrInternal_v0_24__pxrReserved__::SdfLayerOffset" = type { double, double }
%"class.pxrInternal_v0_24__pxrReserved__::VtDictionary" = type { %"class.std::unique_ptr.10" }
%"class.std::unique_ptr.10" = type { %"struct.std::__uniq_ptr_data.11" }
%"struct.std::__uniq_ptr_data.11" = type { %"class.std::__uniq_ptr_impl.12" }
%"class.std::__uniq_ptr_impl.12" = type { %"class.std::tuple.13" }
%"class.std::tuple.13" = type { %"struct.std::_Tuple_impl.14" }
%"struct.std::_Tuple_impl.14" = type { %"struct.std::_Head_base.17" }
%"struct.std::_Head_base.17" = type { ptr }

; Function Attrs: mustprogress nounwind uwtable
define internal void @_ZNSt15__new_allocatorIN32pxrInternal_v0_24__pxrReserved__12_GLOBAL__N_18_ClipSetEED2Ev(ptr noundef nonnull align 1 dereferenceable(1) %0) unnamed_addr #1 align 2 {
  %2 = alloca ptr, align 8
  store ptr %0, ptr %2, align 8
  ret void
}

; Function Attrs: mustprogress nounwind uwtable
define internal void @_ZNSt15__new_allocatorIN32pxrInternal_v0_24__pxrReserved__12_GLOBAL__N_18_ClipSetEE10deallocateEPS2_m(ptr noundef nonnull align 1 dereferenceable(1) %0, ptr noundef %1, i64 noundef %2) #1 align 2 {
  %4 = alloca ptr, align 8
  %5 = alloca ptr, align 8
  %6 = alloca i64, align 8
  store ptr %0, ptr %4, align 8
  store ptr %1, ptr %5, align 8
  store i64 %2, ptr %6, align 8
  %7 = load ptr, ptr %5, align 8
  %8 = load i64, ptr %6, align 8
  %9 = mul i64 %8, 96
  call void @_ZdlPvm(ptr noundef %7, i64 noundef %9) #17
  ret void
}

; Function Attrs: mustprogress nounwind uwtable
define internal void @_ZSt8_DestroyIN32pxrInternal_v0_24__pxrReserved__12_GLOBAL__N_18_ClipSetEEvPT_(ptr noundef %0) #1 {
  %2 = alloca ptr, align 8
  store ptr %0, ptr %2, align 8
  %3 = load ptr, ptr %2, align 8
  call void @_ZN32pxrInternal_v0_24__pxrReserved__12_GLOBAL__N_18_ClipSetD2Ev(ptr noundef nonnull align 8 dereferenceable(96) %3) #13
  ret void
}

; Function Attrs: mustprogress nounwind uwtable
define internal void @_ZNSaIN32pxrInternal_v0_24__pxrReserved__12_GLOBAL__N_18_ClipSetEED2Ev(ptr noundef nonnull align 1 dereferenceable(1) %0) unnamed_addr #1 align 2 {
  %2 = alloca ptr, align 8
  store ptr %0, ptr %2, align 8
  %3 = load ptr, ptr %2, align 8
  call void @_ZNSt15__new_allocatorIN32pxrInternal_v0_24__pxrReserved__12_GLOBAL__N_18_ClipSetEED2Ev(ptr noundef nonnull align 1 dereferenceable(1) %3) #13
  ret void
}

; Function Attrs: mustprogress uwtable
define internal void @_ZNSt16allocator_traitsISaIN32pxrInternal_v0_24__pxrReserved__12_GLOBAL__N_18_ClipSetEEE10deallocateERS3_PS2_m(ptr noundef nonnull align 1 dereferenceable(1) %0, ptr noundef %1, i64 noundef %2) #0 align 2 {
  %4 = alloca ptr, align 8
  %5 = alloca ptr, align 8
  %6 = alloca i64, align 8
  store ptr %0, ptr %4, align 8
  store ptr %1, ptr %5, align 8
  store i64 %2, ptr %6, align 8
  %7 = load ptr, ptr %4, align 8
  %8 = load ptr, ptr %5, align 8
  %9 = load i64, ptr %6, align 8
  call void @_ZNSt15__new_allocatorIN32pxrInternal_v0_24__pxrReserved__12_GLOBAL__N_18_ClipSetEE10deallocateEPS2_m(ptr noundef nonnull align 1 dereferenceable(1) %7, ptr noundef %8, i64 noundef %9)
  ret void
}

; Function Attrs: mustprogress uwtable
define internal void @_ZNSt12_Destroy_auxILb0EE9__destroyIPN32pxrInternal_v0_24__pxrReserved__12_GLOBAL__N_18_ClipSetEEEvT_S6_(ptr noundef %0, ptr noundef %1) #0 align 2 {
  %3 = alloca ptr, align 8
  %4 = alloca ptr, align 8
  store ptr %0, ptr %3, align 8
  store ptr %1, ptr %4, align 8
  br label %5

5:                                                ; preds = %11, %2
  %6 = load ptr, ptr %3, align 8
  %7 = load ptr, ptr %4, align 8
  %8 = icmp ne ptr %6, %7
  br i1 %8, label %9, label %14

9:                                                ; preds = %5
  %10 = load ptr, ptr %3, align 8
  call void @_ZSt8_DestroyIN32pxrInternal_v0_24__pxrReserved__12_GLOBAL__N_18_ClipSetEEvPT_(ptr noundef %10)
  br label %11

11:                                               ; preds = %9
  %12 = load ptr, ptr %3, align 8
  %13 = getelementptr inbounds %"struct.pxrInternal_v0_24__pxrReserved__::(anonymous namespace)::_ClipSet", ptr %12, i32 1
  store ptr %13, ptr %3, align 8
  br label %5, !llvm.loop !45

14:                                               ; preds = %5
  ret void
}

; Function Attrs: mustprogress nounwind uwtable
define internal void @_ZNSt12_Vector_baseIN32pxrInternal_v0_24__pxrReserved__12_GLOBAL__N_18_ClipSetESaIS2_EE12_Vector_implD2Ev(ptr noundef nonnull align 8 dereferenceable(24) %0) unnamed_addr #1 align 2 {
  %2 = alloca ptr, align 8
  store ptr %0, ptr %2, align 8
  %3 = load ptr, ptr %2, align 8
  call void @_ZNSaIN32pxrInternal_v0_24__pxrReserved__12_GLOBAL__N_18_ClipSetEED2Ev(ptr noundef nonnull align 1 dereferenceable(1) %3) #13
  ret void
}

; Function Attrs: mustprogress uwtable
define internal void @_ZNSt12_Vector_baseIN32pxrInternal_v0_24__pxrReserved__12_GLOBAL__N_18_ClipSetESaIS2_EE13_M_deallocateEPS2_m(ptr noundef nonnull align 8 dereferenceable(24) %0, ptr noundef %1, i64 noundef %2) #0 align 2 {
  %4 = alloca ptr, align 8
  %5 = alloca ptr, align 8
  %6 = alloca i64, align 8
  store ptr %0, ptr %4, align 8
  store ptr %1, ptr %5, align 8
  store i64 %2, ptr %6, align 8
  %7 = load ptr, ptr %4, align 8
  %8 = load ptr, ptr %5, align 8
  %9 = icmp ne ptr %8, null
  br i1 %9, label %10, label %14

10:                                               ; preds = %3
  %11 = getelementptr inbounds nuw %"struct.std::_Vector_base.21", ptr %7, i32 0, i32 0
  %12 = load ptr, ptr %5, align 8
  %13 = load i64, ptr %6, align 8
  call void @_ZNSt16allocator_traitsISaIN32pxrInternal_v0_24__pxrReserved__12_GLOBAL__N_18_ClipSetEEE10deallocateERS3_PS2_m(ptr noundef nonnull align 1 dereferenceable(1) %11, ptr noundef %12, i64 noundef %13)
  br label %14

14:                                               ; preds = %10, %3
  ret void
}

; Function Attrs: mustprogress uwtable
define internal void @_ZSt8_DestroyIPN32pxrInternal_v0_24__pxrReserved__12_GLOBAL__N_18_ClipSetEEvT_S4_(ptr noundef %0, ptr noundef %1) #0 {
  %3 = alloca ptr, align 8
  %4 = alloca ptr, align 8
  store ptr %0, ptr %3, align 8
  store ptr %1, ptr %4, align 8
  %5 = load ptr, ptr %3, align 8
  %6 = load ptr, ptr %4, align 8
  call void @_ZNSt12_Destroy_auxILb0EE9__destroyIPN32pxrInternal_v0_24__pxrReserved__12_GLOBAL__N_18_ClipSetEEEvT_S6_(ptr noundef %5, ptr noundef %6)
  ret void
}

; Function Attrs: noreturn nounwind uwtable
define linkonce_odr hidden void @__clang_call_terminate(ptr noundef %0) #4 comdat {
  %2 = call ptr @__cxa_begin_catch(ptr %0) #13
  call void @_ZSt9terminatev() #16
  unreachable
}

; Function Attrs: mustprogress nounwind uwtable
define internal void @_ZNSt12_Vector_baseIN32pxrInternal_v0_24__pxrReserved__12_GLOBAL__N_18_ClipSetESaIS2_EED2Ev(ptr noundef nonnull align 8 dereferenceable(24) %0) unnamed_addr #1 align 2 personality ptr @__gxx_personality_v0 {
  %2 = alloca ptr, align 8
  store ptr %0, ptr %2, align 8
  %3 = load ptr, ptr %2, align 8
  %4 = getelementptr inbounds nuw %"struct.std::_Vector_base.21", ptr %3, i32 0, i32 0
  %5 = getelementptr inbounds nuw %"struct.std::_Vector_base<pxrInternal_v0_24__pxrReserved__::(anonymous namespace)::_ClipSet, std::allocator<pxrInternal_v0_24__pxrReserved__::(anonymous namespace)::_ClipSet>>::_Vector_impl_data", ptr %4, i32 0, i32 0
  %6 = load ptr, ptr %5, align 8
  %7 = getelementptr inbounds nuw %"struct.std::_Vector_base.21", ptr %3, i32 0, i32 0
  %8 = getelementptr inbounds nuw %"struct.std::_Vector_base<pxrInternal_v0_24__pxrReserved__::(anonymous namespace)::_ClipSet, std::allocator<pxrInternal_v0_24__pxrReserved__::(anonymous namespace)::_ClipSet>>::_Vector_impl_data", ptr %7, i32 0, i32 2
  %9 = load ptr, ptr %8, align 8
  %10 = getelementptr inbounds nuw %"struct.std::_Vector_base.21", ptr %3, i32 0, i32 0
  %11 = getelementptr inbounds nuw %"struct.std::_Vector_base<pxrInternal_v0_24__pxrReserved__::(anonymous namespace)::_ClipSet, std::allocator<pxrInternal_v0_24__pxrReserved__::(anonymous namespace)::_ClipSet>>::_Vector_impl_data", ptr %10, i32 0, i32 0
  %12 = load ptr, ptr %11, align 8
  %13 = ptrtoint ptr %9 to i64
  %14 = ptrtoint ptr %12 to i64
  %15 = sub i64 %13, %14
  %16 = sdiv exact i64 %15, 96
  invoke void @_ZNSt12_Vector_baseIN32pxrInternal_v0_24__pxrReserved__12_GLOBAL__N_18_ClipSetESaIS2_EE13_M_deallocateEPS2_m(ptr noundef nonnull align 8 dereferenceable(24) %3, ptr noundef %6, i64 noundef %16)
          to label %17 unwind label %19

17:                                               ; preds = %1
  %18 = getelementptr inbounds nuw %"struct.std::_Vector_base.21", ptr %3, i32 0, i32 0
  call void @_ZNSt12_Vector_baseIN32pxrInternal_v0_24__pxrReserved__12_GLOBAL__N_18_ClipSetESaIS2_EE12_Vector_implD2Ev(ptr noundef nonnull align 8 dereferenceable(24) %18) #13
  ret void

19:                                               ; preds = %1
  %20 = landingpad { ptr, i32 }
          catch ptr null
  %21 = extractvalue { ptr, i32 } %20, 0
  call void @__clang_call_terminate(ptr %21) #16
  unreachable
}

; Function Attrs: mustprogress uwtable
define internal void @_ZSt8_DestroyIPN32pxrInternal_v0_24__pxrReserved__12_GLOBAL__N_18_ClipSetES2_EvT_S4_RSaIT0_E(ptr noundef %0, ptr noundef %1, ptr noundef nonnull align 1 dereferenceable(1) %2) #0 {
  %4 = alloca ptr, align 8
  %5 = alloca ptr, align 8
  %6 = alloca ptr, align 8
  store ptr %0, ptr %4, align 8
  store ptr %1, ptr %5, align 8
  store ptr %2, ptr %6, align 8
  %7 = load ptr, ptr %4, align 8
  %8 = load ptr, ptr %5, align 8
  call void @_ZSt8_DestroyIPN32pxrInternal_v0_24__pxrReserved__12_GLOBAL__N_18_ClipSetEEvT_S4_(ptr noundef %7, ptr noundef %8)
  ret void
}

; Function Attrs: mustprogress nounwind uwtable
define internal noundef nonnull align 1 dereferenceable(1) ptr @_ZNSt12_Vector_baseIN32pxrInternal_v0_24__pxrReserved__12_GLOBAL__N_18_ClipSetESaIS2_EE19_M_get_Tp_allocatorEv(ptr noundef nonnull align 8 dereferenceable(24) %0) #1 align 2 {
  %2 = alloca ptr, align 8
  store ptr %0, ptr %2, align 8
  %3 = load ptr, ptr %2, align 8
  %4 = getelementptr inbounds nuw %"struct.std::_Vector_base.21", ptr %3, i32 0, i32 0
  ret ptr %4
}

; Function Attrs: mustprogress nounwind uwtable
define internal void @_ZNSt6vectorIN32pxrInternal_v0_24__pxrReserved__12_GLOBAL__N_18_ClipSetESaIS2_EED2Ev(ptr noundef nonnull align 8 dereferenceable(24) %0) unnamed_addr #1 align 2 personality ptr @__gxx_personality_v0 {
  %2 = alloca ptr, align 8
  store ptr %0, ptr %2, align 8
  %3 = load ptr, ptr %2, align 8
  %4 = getelementptr inbounds nuw %"struct.std::_Vector_base.21", ptr %3, i32 0, i32 0
  %5 = getelementptr inbounds nuw %"struct.std::_Vector_base<pxrInternal_v0_24__pxrReserved__::(anonymous namespace)::_ClipSet, std::allocator<pxrInternal_v0_24__pxrReserved__::(anonymous namespace)::_ClipSet>>::_Vector_impl_data", ptr %4, i32 0, i32 0
  %6 = load ptr, ptr %5, align 8
  %7 = getelementptr inbounds nuw %"struct.std::_Vector_base.21", ptr %3, i32 0, i32 0
  %8 = getelementptr inbounds nuw %"struct.std::_Vector_base<pxrInternal_v0_24__pxrReserved__::(anonymous namespace)::_ClipSet, std::allocator<pxrInternal_v0_24__pxrReserved__::(anonymous namespace)::_ClipSet>>::_Vector_impl_data", ptr %7, i32 0, i32 1
  %9 = load ptr, ptr %8, align 8
  %10 = call noundef nonnull align 1 dereferenceable(1) ptr @_ZNSt12_Vector_baseIN32pxrInternal_v0_24__pxrReserved__12_GLOBAL__N_18_ClipSetESaIS2_EE19_M_get_Tp_allocatorEv(ptr noundef nonnull align 8 dereferenceable(24) %3) #13
  invoke void @_ZSt8_DestroyIPN32pxrInternal_v0_24__pxrReserved__12_GLOBAL__N_18_ClipSetES2_EvT_S4_RSaIT0_E(ptr noundef %6, ptr noundef %9, ptr noundef nonnull align 1 dereferenceable(1) %10)
          to label %11 unwind label %12

11:                                               ; preds = %1
  call void @_ZNSt12_Vector_baseIN32pxrInternal_v0_24__pxrReserved__12_GLOBAL__N_18_ClipSetESaIS2_EED2Ev(ptr noundef nonnull align 8 dereferenceable(24) %3) #13
  ret void

12:                                               ; preds = %1
  %13 = landingpad { ptr, i32 }
          catch ptr null
  %14 = extractvalue { ptr, i32 } %13, 0
  call void @__clang_call_terminate(ptr %14) #16
  unreachable
}